target datalayout = "e-m:e-p270:32:32-p271:32:32-p272:64:64-i64:64-i128:128-f80:128-n8:16:32:64-S128"
target triple = "x86_64-pc-linux-gnu"

%struct.BufferUsage = type { i64, i64, i64, i64, i64, i64, i64, i64, i64, i64, %struct.instr_time, %struct.instr_time, %struct.instr_time, %struct.instr_time, %struct.instr_time, %struct.instr_time }
%struct.instr_time = type { i64 }
%struct.ExplainState = type { ptr, i8, i8, i8, i8, i8, i8, i8, i8, i8, i8, i32, i32, i32, ptr, ptr, ptr, ptr, ptr, ptr, i8, i32, ptr }
%struct.Instrumentation = type { i8, i8, i8, i8, i8, %struct.instr_time, %struct.instr_time, double, double, %struct.BufferUsage, %struct.WalUsage, double, double, double, double, double, double, double, %struct.BufferUsage, %struct.WalUsage }
%struct.WalUsage = type { i64, i64, i64, i64 }
%struct.ResultRelInfo = type { i32, i32, ptr, i32, ptr, ptr, i16, ptr, i8, ptr, ptr, ptr, i8, i8, ptr, ptr, ptr, ptr, ptr, ptr, ptr, ptr, ptr, ptr, i8, i32, i32, i32, ptr, ptr, ptr, ptr, ptr, ptr, ptr, i32, i32, ptr, ptr, ptr, ptr, [3 x ptr], ptr, ptr, ptr, i8, ptr, i8, ptr, ptr, ptr, ptr }
%struct.TriggerDesc = type { ptr, i32, i8, i8, i8, i8, i8, i8, i8, i8, i8, i8, i8, i8, i8, i8, i8, i8, i8, i8, i8, i8, i8 }
%struct.Trigger = type { i32, ptr, i32, i16, i8, i8, i8, i32, i32, i32, i8, i8, i16, i16, ptr, ptr, ptr, ptr, ptr }
%struct.RelationData = type { %struct.RelFileLocator, ptr, i32, i32, i8, i8, i8, i8, i8, i32, i32, i32, i32, ptr, ptr, i32, %struct.LockInfoData, ptr, ptr, ptr, ptr, ptr, i8, ptr, ptr, ptr, ptr, ptr, ptr, i32, ptr, i8, ptr, ptr, i32, i8, i32, ptr, i8, ptr, ptr, ptr, ptr, ptr, ptr, ptr, i32, ptr, ptr, ptr, ptr, ptr, ptr, ptr, ptr, ptr, ptr, ptr, ptr, ptr, ptr, ptr, ptr, ptr, ptr, ptr, i32, i8, ptr }
%struct.RelFileLocator = type { i32, i32, i32 }
%struct.LockInfoData = type { %struct.LockRelId }
%struct.LockRelId = type { i32, i32 }
%struct.FormData_pg_class = type { i32, %struct.nameData, i32, i32, i32, i32, i32, i32, i32, i32, float, i32, i32, i8, i8, i8, i8, i16, i16, i8, i8, i8, i8, i8, i8, i8, i8, i32, i32, i32 }
%struct.nameData = type { [64 x i8] }

@.str.41 = private unnamed_addr constant [3 x i8] c"ms\00", align 1
@.str.56 = private unnamed_addr constant [5 x i8] c"%.*f\00", align 1
@.str.84 = private unnamed_addr constant [5 x i8] c"Time\00", align 1
@.str.88 = private unnamed_addr constant [8 x i8] c"Trigger\00", align 1
@.str.89 = private unnamed_addr constant [11 x i8] c"Trigger %s\00", align 1
@.str.90 = private unnamed_addr constant [19 x i8] c" for constraint %s\00", align 1
@.str.91 = private unnamed_addr constant [7 x i8] c" on %s\00", align 1
@.str.92 = private unnamed_addr constant [24 x i8] c": time=%.3f calls=%.0f\0A\00", align 1
@.str.93 = private unnamed_addr constant [14 x i8] c": calls=%.0f\0A\00", align 1
@.str.94 = private unnamed_addr constant [13 x i8] c"Trigger Name\00", align 1
@.str.95 = private unnamed_addr constant [16 x i8] c"Constraint Name\00", align 1
@.str.96 = private unnamed_addr constant [9 x i8] c"Relation\00", align 1
@.str.97 = private unnamed_addr constant [6 x i8] c"Calls\00", align 1

; Function Attrs: nounwind uwtable
define dso_local void @ExplainPropertyFloat(ptr noundef %0, ptr noundef %1, double noundef %2, i32 noundef %3, ptr noundef %4) #0 {
  %6 = alloca ptr, align 8
  %7 = alloca ptr, align 8
  %8 = alloca double, align 8
  %9 = alloca i32, align 4
  %10 = alloca ptr, align 8
  %11 = alloca ptr, align 8
  store ptr %0, ptr %6, align 8
  store ptr %1, ptr %7, align 8
  store double %2, ptr %8, align 8
  store i32 %3, ptr %9, align 4
  store ptr %4, ptr %10, align 8
  call void @llvm.lifetime.start.p0(i64 8, ptr %11) #10
  %12 = load i32, ptr %9, align 4
  %13 = load double, ptr %8, align 8
  %14 = call ptr (ptr, ...) @psprintf(ptr noundef @.str.56, i32 noundef %12, double noundef %13)
  store ptr %14, ptr %11, align 8
  %15 = load ptr, ptr %6, align 8
  %16 = load ptr, ptr %7, align 8
  %17 = load ptr, ptr %11, align 8
  %18 = load ptr, ptr %10, align 8
  call void @ExplainProperty(ptr noundef %15, ptr noundef %16, ptr noundef %17, i1 noundef zeroext true, ptr noundef %18)
  %19 = load ptr, ptr %11, align 8
  call void @pfree(ptr noundef %19)
  call void @llvm.lifetime.end.p0(i64 8, ptr %11) #10
  ret void
}

; Function Attrs: nounwind uwtable
define dso_local void @ExplainPropertyText(ptr noundef %0, ptr noundef %1, ptr noundef %2) #0 {
  %4 = alloca ptr, align 8
  %5 = alloca ptr, align 8
  %6 = alloca ptr, align 8
  store ptr %0, ptr %4, align 8
  store ptr %1, ptr %5, align 8
  store ptr %2, ptr %6, align 8
  %7 = load ptr, ptr %4, align 8
  %8 = load ptr, ptr %5, align 8
  %9 = load ptr, ptr %6, align 8
  call void @ExplainProperty(ptr noundef %7, ptr noundef null, ptr noundef %8, i1 noundef zeroext false, ptr noundef %9)
  ret void
}

; Function Attrs: nounwind uwtable
define internal void @report_triggers(ptr noundef %0, i1 noundef zeroext %1, ptr noundef %2) #0 {
  %4 = alloca ptr, align 8
  %5 = alloca i8, align 1
  %6 = alloca ptr, align 8
  %7 = alloca i32, align 4
  %8 = alloca i32, align 4
  %9 = alloca ptr, align 8
  %10 = alloca ptr, align 8
  %11 = alloca ptr, align 8
  %12 = alloca ptr, align 8
  store ptr %0, ptr %4, align 8
  %13 = zext i1 %1 to i8
  store i8 %13, ptr %5, align 1
  store ptr %2, ptr %6, align 8
  call void @llvm.lifetime.start.p0(i64 4, ptr %7) #10
  %14 = load ptr, ptr %4, align 8
  %15 = getelementptr inbounds nuw %struct.ResultRelInfo, ptr %14, i32 0, i32 14
  %16 = load ptr, ptr %15, align 8
  %17 = icmp ne ptr %16, null
  br i1 %17, label %18, label %23

18:                                               ; preds = %3
  %19 = load ptr, ptr %4, align 8
  %20 = getelementptr inbounds nuw %struct.ResultRelInfo, ptr %19, i32 0, i32 17
  %21 = load ptr, ptr %20, align 8
  %22 = icmp ne ptr %21, null
  br i1 %22, label %24, label %23

23:                                               ; preds = %18, %3
  store i32 1, ptr %8, align 4
  br label %179

24:                                               ; preds = %18
  store i32 0, ptr %7, align 4
  br label %25

25:                                               ; preds = %175, %24
  %26 = load i32, ptr %7, align 4
  %27 = load ptr, ptr %4, align 8
  %28 = getelementptr inbounds nuw %struct.ResultRelInfo, ptr %27, i32 0, i32 14
  %29 = load ptr, ptr %28, align 8
  %30 = getelementptr inbounds nuw %struct.TriggerDesc, ptr %29, i32 0, i32 1
  %31 = load i32, ptr %30, align 8
  %32 = icmp slt i32 %26, %31
  br i1 %32, label %33, label %178

33:                                               ; preds = %25
  call void @llvm.lifetime.start.p0(i64 8, ptr %9) #10
  %34 = load ptr, ptr %4, align 8
  %35 = getelementptr inbounds nuw %struct.ResultRelInfo, ptr %34, i32 0, i32 14
  %36 = load ptr, ptr %35, align 8
  %37 = getelementptr inbounds nuw %struct.TriggerDesc, ptr %36, i32 0, i32 0
  %38 = load ptr, ptr %37, align 8
  %39 = load i32, ptr %7, align 4
  %40 = sext i32 %39 to i64
  %41 = getelementptr inbounds %struct.Trigger, ptr %38, i64 %40
  store ptr %41, ptr %9, align 8
  call void @llvm.lifetime.start.p0(i64 8, ptr %10) #10
  %42 = load ptr, ptr %4, align 8
  %43 = getelementptr inbounds nuw %struct.ResultRelInfo, ptr %42, i32 0, i32 17
  %44 = load ptr, ptr %43, align 8
  %45 = load i32, ptr %7, align 4
  %46 = sext i32 %45 to i64
  %47 = getelementptr inbounds %struct.Instrumentation, ptr %44, i64 %46
  store ptr %47, ptr %10, align 8
  call void @llvm.lifetime.start.p0(i64 8, ptr %11) #10
  call void @llvm.lifetime.start.p0(i64 8, ptr %12) #10
  store ptr null, ptr %12, align 8
  %48 = load ptr, ptr %10, align 8
  call void @InstrEndLoop(ptr noundef %48)
  %49 = load ptr, ptr %10, align 8
  %50 = getelementptr inbounds nuw %struct.Instrumentation, ptr %49, i32 0, i32 13
  %51 = load double, ptr %50, align 8
  %52 = fcmp oeq double %51, 0.000000e+00
  br i1 %52, label %53, label %54

53:                                               ; preds = %33
  store i32 4, ptr %8, align 4
  br label %172

54:                                               ; preds = %33
  %55 = load ptr, ptr %6, align 8
  call void @ExplainOpenGroup(ptr noundef @.str.88, ptr noundef null, i1 noundef zeroext true, ptr noundef %55)
  %56 = load ptr, ptr %4, align 8
  %57 = getelementptr inbounds nuw %struct.ResultRelInfo, ptr %56, i32 0, i32 2
  %58 = load ptr, ptr %57, align 8
  %59 = getelementptr inbounds nuw %struct.RelationData, ptr %58, i32 0, i32 13
  %60 = load ptr, ptr %59, align 8
  %61 = getelementptr inbounds nuw %struct.FormData_pg_class, ptr %60, i32 0, i32 1
  %62 = getelementptr inbounds nuw %struct.nameData, ptr %61, i32 0, i32 0
  %63 = getelementptr inbounds [64 x i8], ptr %62, i64 0, i64 0
  store ptr %63, ptr %11, align 8
  %64 = load ptr, ptr %9, align 8
  %65 = getelementptr inbounds nuw %struct.Trigger, ptr %64, i32 0, i32 9
  %66 = load i32, ptr %65, align 4
  %67 = icmp ne i32 %66, 0
  br i1 %67, label %68, label %73

68:                                               ; preds = %54
  %69 = load ptr, ptr %9, align 8
  %70 = getelementptr inbounds nuw %struct.Trigger, ptr %69, i32 0, i32 9
  %71 = load i32, ptr %70, align 4
  %72 = call ptr @get_constraint_name(i32 noundef %71)
  store ptr %72, ptr %12, align 8
  br label %73

73:                                               ; preds = %68, %54
  %74 = load ptr, ptr %6, align 8
  %75 = getelementptr inbounds nuw %struct.ExplainState, ptr %74, i32 0, i32 12
  %76 = load i32, ptr %75, align 8
  %77 = icmp eq i32 %76, 0
  br i1 %77, label %78, label %137

78:                                               ; preds = %73
  %79 = load ptr, ptr %6, align 8
  %80 = getelementptr inbounds nuw %struct.ExplainState, ptr %79, i32 0, i32 1
  %81 = load i8, ptr %80, align 8, !range !6, !noundef !7
  %82 = trunc i8 %81 to i1
  br i1 %82, label %86, label %83

83:                                               ; preds = %78
  %84 = load ptr, ptr %12, align 8
  %85 = icmp eq ptr %84, null
  br i1 %85, label %86, label %93

86:                                               ; preds = %83, %78
  %87 = load ptr, ptr %6, align 8
  %88 = getelementptr inbounds nuw %struct.ExplainState, ptr %87, i32 0, i32 0
  %89 = load ptr, ptr %88, align 8
  %90 = load ptr, ptr %9, align 8
  %91 = getelementptr inbounds nuw %struct.Trigger, ptr %90, i32 0, i32 1
  %92 = load ptr, ptr %91, align 8
  call void (ptr, ptr, ...) @appendStringInfo(ptr noundef %89, ptr noundef @.str.89, ptr noundef %92)
  br label %97

93:                                               ; preds = %83
  %94 = load ptr, ptr %6, align 8
  %95 = getelementptr inbounds nuw %struct.ExplainState, ptr %94, i32 0, i32 0
  %96 = load ptr, ptr %95, align 8
  call void @appendStringInfoString(ptr noundef %96, ptr noundef @.str.88)
  br label %97

97:                                               ; preds = %93, %86
  %98 = load ptr, ptr %12, align 8
  %99 = icmp ne ptr %98, null
  br i1 %99, label %100, label %105

100:                                              ; preds = %97
  %101 = load ptr, ptr %6, align 8
  %102 = getelementptr inbounds nuw %struct.ExplainState, ptr %101, i32 0, i32 0
  %103 = load ptr, ptr %102, align 8
  %104 = load ptr, ptr %12, align 8
  call void (ptr, ptr, ...) @appendStringInfo(ptr noundef %103, ptr noundef @.str.90, ptr noundef %104)
  br label %105

105:                                              ; preds = %100, %97
  %106 = load i8, ptr %5, align 1, !range !6, !noundef !7
  %107 = trunc i8 %106 to i1
  br i1 %107, label %108, label %113

108:                                              ; preds = %105
  %109 = load ptr, ptr %6, align 8
  %110 = getelementptr inbounds nuw %struct.ExplainState, ptr %109, i32 0, i32 0
  %111 = load ptr, ptr %110, align 8
  %112 = load ptr, ptr %11, align 8
  call void (ptr, ptr, ...) @appendStringInfo(ptr noundef %111, ptr noundef @.str.91, ptr noundef %112)
  br label %113

113:                                              ; preds = %108, %105
  %114 = load ptr, ptr %6, align 8
  %115 = getelementptr inbounds nuw %struct.ExplainState, ptr %114, i32 0, i32 6
  %116 = load i8, ptr %115, align 1, !range !6, !noundef !7
  %117 = trunc i8 %116 to i1
  br i1 %117, label %118, label %129

118:                                              ; preds = %113
  %119 = load ptr, ptr %6, align 8
  %120 = getelementptr inbounds nuw %struct.ExplainState, ptr %119, i32 0, i32 0
  %121 = load ptr, ptr %120, align 8
  %122 = load ptr, ptr %10, align 8
  %123 = getelementptr inbounds nuw %struct.Instrumentation, ptr %122, i32 0, i32 12
  %124 = load double, ptr %123, align 8
  %125 = fmul double 1.000000e+03, %124
  %126 = load ptr, ptr %10, align 8
  %127 = getelementptr inbounds nuw %struct.Instrumentation, ptr %126, i32 0, i32 13
  %128 = load double, ptr %127, align 8
  call void (ptr, ptr, ...) @appendStringInfo(ptr noundef %121, ptr noundef @.str.92, double noundef %125, double noundef %128)
  br label %136

129:                                              ; preds = %113
  %130 = load ptr, ptr %6, align 8
  %131 = getelementptr inbounds nuw %struct.ExplainState, ptr %130, i32 0, i32 0
  %132 = load ptr, ptr %131, align 8
  %133 = load ptr, ptr %10, align 8
  %134 = getelementptr inbounds nuw %struct.Instrumentation, ptr %133, i32 0, i32 13
  %135 = load double, ptr %134, align 8
  call void (ptr, ptr, ...) @appendStringInfo(ptr noundef %132, ptr noundef @.str.93, double noundef %135)
  br label %136

136:                                              ; preds = %129, %118
  br label %165

137:                                              ; preds = %73
  %138 = load ptr, ptr %9, align 8
  %139 = getelementptr inbounds nuw %struct.Trigger, ptr %138, i32 0, i32 1
  %140 = load ptr, ptr %139, align 8
  %141 = load ptr, ptr %6, align 8
  call void @ExplainPropertyText(ptr noundef @.str.94, ptr noundef %140, ptr noundef %141)
  %142 = load ptr, ptr %12, align 8
  %143 = icmp ne ptr %142, null
  br i1 %143, label %144, label %147

144:                                              ; preds = %137
  %145 = load ptr, ptr %12, align 8
  %146 = load ptr, ptr %6, align 8
  call void @ExplainPropertyText(ptr noundef @.str.95, ptr noundef %145, ptr noundef %146)
  br label %147

147:                                              ; preds = %144, %137
  %148 = load ptr, ptr %11, align 8
  %149 = load ptr, ptr %6, align 8
  call void @ExplainPropertyText(ptr noundef @.str.96, ptr noundef %148, ptr noundef %149)
  %150 = load ptr, ptr %6, align 8
  %151 = getelementptr inbounds nuw %struct.ExplainState, ptr %150, i32 0, i32 6
  %152 = load i8, ptr %151, align 1, !range !6, !noundef !7
  %153 = trunc i8 %152 to i1
  br i1 %153, label %154, label %160

154:                                              ; preds = %147
  %155 = load ptr, ptr %10, align 8
  %156 = getelementptr inbounds nuw %struct.Instrumentation, ptr %155, i32 0, i32 12
  %157 = load double, ptr %156, align 8
  %158 = fmul double 1.000000e+03, %157
  %159 = load ptr, ptr %6, align 8
  call void @ExplainPropertyFloat(ptr noundef @.str.84, ptr noundef @.str.41, double noundef %158, i32 noundef 3, ptr noundef %159)
  br label %160

160:                                              ; preds = %154, %147
  %161 = load ptr, ptr %10, align 8
  %162 = getelementptr inbounds nuw %struct.Instrumentation, ptr %161, i32 0, i32 13
  %163 = load double, ptr %162, align 8
  %164 = load ptr, ptr %6, align 8
  call void @ExplainPropertyFloat(ptr noundef @.str.97, ptr noundef null, double noundef %163, i32 noundef 0, ptr noundef %164)
  br label %165

165:                                              ; preds = %160, %136
  %166 = load ptr, ptr %12, align 8
  %167 = icmp ne ptr %166, null
  br i1 %167, label %168, label %170

168:                                              ; preds = %165
  %169 = load ptr, ptr %12, align 8
  call void @pfree(ptr noundef %169)
  br label %170

170:                                              ; preds = %168, %165
  %171 = load ptr, ptr %6, align 8
  call void @ExplainCloseGroup(ptr noundef @.str.88, ptr noundef null, i1 noundef zeroext true, ptr noundef %171)
  store i32 0, ptr %8, align 4
  br label %172

172:                                              ; preds = %170, %53
  call void @llvm.lifetime.end.p0(i64 8, ptr %12) #10
  call void @llvm.lifetime.end.p0(i64 8, ptr %11) #10
  call void @llvm.lifetime.end.p0(i64 8, ptr %10) #10
  call void @llvm.lifetime.end.p0(i64 8, ptr %9) #10
  %173 = load i32, ptr %8, align 4
  switch i32 %173, label %182 [
    i32 0, label %174
    i32 4, label %175
  ]

174:                                              ; preds = %172
  br label %175

175:                                              ; preds = %174, %172
  %176 = load i32, ptr %7, align 4
  %177 = add i32 %176, 1
  store i32 %177, ptr %7, align 4
  br label %25, !llvm.loop !20

178:                                              ; preds = %25
  store i32 0, ptr %8, align 4
  br label %179

179:                                              ; preds = %178, %23
  call void @llvm.lifetime.end.p0(i64 4, ptr %7) #10
  %180 = load i32, ptr %8, align 4
  switch i32 %180, label %182 [
    i32 0, label %181
    i32 1, label %181
  ]

181:                                              ; preds = %179, %179
  ret void

182:                                              ; preds = %179, %172
  unreachable
}