; Function Attrs: nounwind uwtable
define internal fastcc void @report_triggers(ptr noundef readonly captures(none) %0, i1 noundef zeroext %1, ptr noundef captures(none) %2) unnamed_addr #0 {
  %4 = getelementptr inbounds nuw i8, ptr %0, i64 96
  %5 = load ptr, ptr %4, align 8
  %.not = icmp eq ptr %5, null
  br i1 %.not, label %.loopexit, label %6

6:                                                ; preds = %3
  %7 = getelementptr inbounds nuw i8, ptr %0, i64 120
  %8 = load ptr, ptr %7, align 8
  %.not50 = icmp eq ptr %8, null
  br i1 %.not50, label %.loopexit, label %.preheader

.preheader:                                       ; preds = %6
  %9 = getelementptr inbounds nuw i8, ptr %5, i64 8
  %10 = load i32, ptr %9, align 8
  %11 = icmp sgt i32 %10, 0
  br i1 %11, label %.lr.ph, label %.loopexit

.lr.ph:                                           ; preds = %.preheader
  %12 = getelementptr inbounds nuw i8, ptr %0, i64 8
  %13 = getelementptr inbounds nuw i8, ptr %2, i64 24
  %14 = getelementptr inbounds nuw i8, ptr %2, i64 13
  %15 = getelementptr inbounds nuw i8, ptr %2, i64 8
  br label %16

16:                                               ; preds = %.lr.ph, %79
  %indvars.iv = phi i64 [ 0, %.lr.ph ], [ %indvars.iv.next, %79 ]
  %17 = phi ptr [ %5, %.lr.ph ], [ %80, %79 ]
  %18 = load ptr, ptr %17, align 8
  %19 = getelementptr inbounds nuw %struct.Trigger, ptr %18, i64 %indvars.iv
  %20 = load ptr, ptr %7, align 8
  %21 = getelementptr inbounds nuw %struct.Instrumentation, ptr %20, i64 %indvars.iv
  tail call void @InstrEndLoop(ptr noundef %21) #13
  %22 = getelementptr inbounds nuw i8, ptr %21, i64 216
  %23 = load double, ptr %22, align 8
  %24 = fcmp oeq double %23, 0.000000e+00
  br i1 %24, label %79, label %25

25:                                               ; preds = %16
  tail call void @ExplainOpenGroup(ptr noundef nonnull @.str.88, ptr noundef null, i1 noundef zeroext true, ptr noundef %2)
  %26 = load ptr, ptr %12, align 8
  %27 = getelementptr inbounds nuw i8, ptr %26, i64 56
  %28 = load ptr, ptr %27, align 8
  %29 = getelementptr inbounds nuw i8, ptr %28, i64 4
  %30 = getelementptr inbounds nuw i8, ptr %19, i64 36
  %31 = load i32, ptr %30, align 4
  %.not51 = icmp eq i32 %31, 0
  br i1 %.not51, label %34, label %32

32:                                               ; preds = %25
  %33 = tail call ptr @get_constraint_name(i32 noundef %31) #13
  br label %34

34:                                               ; preds = %32, %25
  %.0 = phi ptr [ %33, %32 ], [ null, %25 ]
  %35 = load i32, ptr %13, align 8
  %36 = icmp eq i32 %35, 0
  br i1 %36, label %37, label %61

37:                                               ; preds = %34
  %38 = load i8, ptr %15, align 8, !range !4, !noundef !5
  %39 = trunc nuw i8 %38 to i1
  %40 = icmp eq ptr %.0, null
  %or.cond = select i1 %39, i1 true, i1 %40
  %41 = load ptr, ptr %2, align 8
  br i1 %or.cond, label %42, label %.thread

.thread:                                          ; preds = %37
  tail call void @appendStringInfoString(ptr noundef %41, ptr noundef nonnull @.str.88) #13
  br label %45

42:                                               ; preds = %37
  %43 = getelementptr inbounds nuw i8, ptr %19, i64 8
  %44 = load ptr, ptr %43, align 8
  tail call void (ptr, ptr, ...) @appendStringInfo(ptr noundef %41, ptr noundef nonnull @.str.89, ptr noundef %44) #13
  br i1 %40, label %47, label %45

45:                                               ; preds = %.thread, %42
  %46 = load ptr, ptr %2, align 8
  tail call void (ptr, ptr, ...) @appendStringInfo(ptr noundef %46, ptr noundef nonnull @.str.90, ptr noundef nonnull %.0) #13
  br label %47

47:                                               ; preds = %45, %42
  br i1 %1, label %48, label %50

48:                                               ; preds = %47
  %49 = load ptr, ptr %2, align 8
  tail call void (ptr, ptr, ...) @appendStringInfo(ptr noundef %49, ptr noundef nonnull @.str.91, ptr noundef nonnull %29) #13
  br label %50

50:                                               ; preds = %48, %47
  %51 = load i8, ptr %14, align 1, !range !4, !noundef !5
  %52 = trunc nuw i8 %51 to i1
  %53 = load ptr, ptr %2, align 8
  br i1 %52, label %54, label %59

54:                                               ; preds = %50
  %55 = getelementptr inbounds nuw i8, ptr %21, i64 208
  %56 = load double, ptr %55, align 8
  %57 = fmul double %56, 1.000000e+03
  %58 = load double, ptr %22, align 8
  tail call void (ptr, ptr, ...) @appendStringInfo(ptr noundef %53, ptr noundef nonnull @.str.92, double noundef %57, double noundef %58) #13
  br label %76

59:                                               ; preds = %50
  %60 = load double, ptr %22, align 8
  tail call void (ptr, ptr, ...) @appendStringInfo(ptr noundef %53, ptr noundef nonnull @.str.93, double noundef %60) #13
  br label %76

61:                                               ; preds = %34
  %62 = getelementptr inbounds nuw i8, ptr %19, i64 8
  %63 = load ptr, ptr %62, align 8
  tail call fastcc void @ExplainProperty(ptr noundef nonnull @.str.94, ptr noundef null, ptr noundef %63, i1 noundef zeroext false, ptr noundef nonnull readonly %2)
  %.not52 = icmp eq ptr %.0, null
  br i1 %.not52, label %65, label %64

64:                                               ; preds = %61
  tail call fastcc void @ExplainProperty(ptr noundef nonnull @.str.95, ptr noundef null, ptr noundef nonnull %.0, i1 noundef zeroext false, ptr noundef nonnull readonly %2)
  br label %65

65:                                               ; preds = %64, %61
  tail call fastcc void @ExplainProperty(ptr noundef nonnull @.str.96, ptr noundef null, ptr noundef nonnull %29, i1 noundef zeroext false, ptr noundef nonnull readonly %2)
  %66 = load i8, ptr %14, align 1, !range !4, !noundef !5
  %67 = trunc nuw i8 %66 to i1
  br i1 %67, label %68, label %73

68:                                               ; preds = %65
  %69 = getelementptr inbounds nuw i8, ptr %21, i64 208
  %70 = load double, ptr %69, align 8
  %71 = fmul double %70, 1.000000e+03
  %72 = tail call ptr (ptr, ...) @psprintf(ptr noundef nonnull @.str.56, i32 noundef 3, double noundef %71) #13
  tail call fastcc void @ExplainProperty(ptr noundef nonnull @.str.84, ptr noundef nonnull @.str.41, ptr noundef %72, i1 noundef zeroext true, ptr noundef nonnull readonly %2)
  tail call void @pfree(ptr noundef %72) #13
  br label %73

73:                                               ; preds = %68, %65
  %74 = load double, ptr %22, align 8
  %75 = tail call ptr (ptr, ...) @psprintf(ptr noundef nonnull @.str.56, i32 noundef 0, double noundef %74) #13
  tail call fastcc void @ExplainProperty(ptr noundef nonnull @.str.97, ptr noundef null, ptr noundef %75, i1 noundef zeroext true, ptr noundef nonnull readonly %2)
  tail call void @pfree(ptr noundef %75) #13
  br label %76

76:                                               ; preds = %54, %59, %73
  %.not54 = icmp eq ptr %.0, null
  br i1 %.not54, label %78, label %77

77:                                               ; preds = %76
  tail call void @pfree(ptr noundef nonnull %.0) #13
  br label %78

78:                                               ; preds = %77, %76
  tail call void @ExplainCloseGroup(ptr noundef nonnull @.str.88, ptr poison, i1 noundef zeroext true, ptr noundef nonnull %2)
  br label %79

79:                                               ; preds = %16, %78
  %indvars.iv.next = add nuw nsw i64 %indvars.iv, 1
  %80 = load ptr, ptr %4, align 8
  %81 = getelementptr inbounds nuw i8, ptr %80, i64 8
  %82 = load i32, ptr %81, align 8
  %83 = sext i32 %82 to i64
  %84 = icmp slt i64 %indvars.iv.next, %83
  br i1 %84, label %16, label %.loopexit, !llvm.loop !26

.loopexit:                                        ; preds = %79, %.preheader, %3, %6
  ret void
}